; Function Attrs: nounwind uwtable
define internal fastcc void @_jumbleJsonTable(ptr noundef %0, ptr noundef nonnull readonly captures(none) %1) unnamed_addr #0 {
  %3 = getelementptr inbounds nuw i8, ptr %1, i64 8
  %4 = load ptr, ptr %3, align 8
  tail call fastcc void @_jumbleNode(ptr noundef %0, ptr noundef %4)
  %5 = getelementptr inbounds nuw i8, ptr %1, i64 16
  %6 = load ptr, ptr %5, align 8
  tail call fastcc void @_jumbleNode(ptr noundef %0, ptr noundef %6)
  %7 = getelementptr inbounds nuw i8, ptr %1, i64 24
  %8 = load ptr, ptr %7, align 8
  tail call fastcc void @_jumbleNode(ptr noundef %0, ptr noundef %8)
  %9 = getelementptr inbounds nuw i8, ptr %1, i64 32
  %10 = load ptr, ptr %9, align 8
  tail call fastcc void @_jumbleNode(ptr noundef %0, ptr noundef %10)
  %11 = getelementptr inbounds nuw i8, ptr %1, i64 40
  %12 = load ptr, ptr %11, align 8
  tail call fastcc void @_jumbleNode(ptr noundef %0, ptr noundef %12)
  %13 = getelementptr inbounds nuw i8, ptr %1, i64 48
  %14 = load ptr, ptr %13, align 8
  tail call fastcc void @_jumbleNode(ptr noundef %0, ptr noundef %14)
  %15 = getelementptr inbounds nuw i8, ptr %1, i64 56
  %16 = load ptr, ptr %0, align 8
  %17 = getelementptr inbounds nuw i8, ptr %0, i64 8
  %18 = load i64, ptr %17, align 8
  br label %.lr.ph.i

.lr.ph.i:                                         ; preds = %22, %2
  %.026.i = phi ptr [ %27, %22 ], [ %15, %2 ]
  %.02125.i = phi i64 [ %28, %22 ], [ 1, %2 ]
  %.02224.i = phi i64 [ %26, %22 ], [ %18, %2 ]
  %19 = icmp ugt i64 %.02224.i, 1023
  br i1 %19, label %20, label %22

20:                                               ; preds = %.lr.ph.i
  %21 = tail call i64 @hash_bytes_extended(ptr noundef %16, i32 noundef 1024, i64 noundef 0) #9
  store i64 %21, ptr %16, align 1
  br label %22

22:                                               ; preds = %20, %.lr.ph.i
  %.1.i = phi i64 [ 8, %20 ], [ %.02224.i, %.lr.ph.i ]
  %23 = sub nuw nsw i64 1024, %.1.i
  %24 = tail call i64 @llvm.umin.i64(i64 %.02125.i, i64 %23)
  %25 = getelementptr inbounds nuw i8, ptr %16, i64 %.1.i
  tail call void @llvm.memcpy.p0.p0.i64(ptr noundef nonnull align 1 dereferenceable(1) %25, ptr noundef nonnull align 1 dereferenceable(1) %.026.i, i64 %24, i1 false)
  %26 = add nuw nsw i64 %24, %.1.i
  %27 = getelementptr inbounds nuw i8, ptr %.026.i, i64 %24
  %28 = sub i64 %.02125.i, %24
  %.not.i = icmp eq i64 %28, 0
  br i1 %.not.i, label %AppendJumble.exit, label %.lr.ph.i, !llvm.loop !7

AppendJumble.exit:                                ; preds = %22
  store i64 %26, ptr %17, align 8
  ret void
}